libragel.so.0:_Z11makeBuiltin14BuiltinMachineP9ParseData
libragel.so.0:_Z12makeInputLocPKcii
libragel.so.0:_Z13makeFsmKeyDecPcRK8InputLocP9ParseData
libragel.so.0:_Z13makeFsmKeyHexPcRK8InputLocP9ParseData
libragel.so.0:_Z13makeFsmKeyNumPcRK8InputLocP9ParseData
libragel.so.0:_Z14isAbsolutePathPKc
libragel.so.0:_Z14makeFsmKeyCharcP9ParseData
libragel.so.0:_Z15checkLitOptionsP9InputDataRK8InputLocPKciRb
libragel.so.0:_Z15makeFsmKeyArrayP3KeyPciP9ParseData
libragel.so.0:_Z16countTransitionsP5FsmAp
libragel.so.0:_Z16prepareHexStringP9ParseDataRK8InputLocPKclRl
libragel.so.0:_Z16prepareLitStringP9InputDataRK8InputLocPKclRlRb
libragel.so.0:_Z21makeFsmUniqueKeyArrayR6KeySetPKcibP9ParseData
libragel.so.0:_Z23escapeLineDirectivePathRSoPc
libragel.so.0:_Z8unescapePKc
libragel.so.0:_Z8unescapePKci
libragel.so.0:_ZN10Expression12makeNameTreeEP9ParseData
libragel.so.0:_ZN10Expression15resolveNameRefsEP9ParseData
libragel.so.0:_ZN10Expression4walkEP9ParseDatab
libragel.so.0:_ZN10ExpressionD1Ev
libragel.so.0:_ZN10ExpressionD2Ev
libragel.so.0:_ZN10MachineDef12makeNameTreeEP9ParseData
libragel.so.0:_ZN10MachineDef15resolveNameRefsEP9ParseData
libragel.so.0:_ZN10MachineDef4walkEP9ParseData
libragel.so.0:_ZN10MachineDefD1Ev
libragel.so.0:_ZN10MachineDefD2Ev
libragel.so.0:_ZN10ParamCheck5checkEv
libragel.so.0:_ZN10ParamCheckC1EPKciPS1_
libragel.so.0:_ZN10ParamCheckC2EPKciPS1_
libragel.so.0:_ZN12LongestMatch10onlyOneNfaEP9ParseDataP5FsmApP7StateApP8NfaTrans
libragel.so.0:_ZN12LongestMatch11makeActionsEP9ParseData
libragel.so.0:_ZN12LongestMatch11newLmActionEP9ParseDataRK8InputLocPKcP10InlineList
libragel.so.0:_ZN12LongestMatch11walkClassicEP9ParseData
libragel.so.0:_ZN12LongestMatch12buildBaseNfaEP9ParseData
libragel.so.0:_ZN12LongestMatch12makeNameTreeEP9ParseData
libragel.so.0:_ZN12LongestMatch12matchCanFailEP9ParseDataP5FsmApP7StateAp
libragel.so.0:_ZN12LongestMatch14mergeNfaStatesEP9ParseDataP5FsmAp
libragel.so.0:_ZN12LongestMatch15resolveNameRefsEP9ParseData
libragel.so.0:_ZN12LongestMatch15runLongestMatchEP9ParseDataP5FsmAp
libragel.so.0:_ZN12LongestMatch17advanceNfaActionsEP9ParseDataP5FsmAp
libragel.so.0:_ZN12LongestMatch19eliminateNfaActionsEP9ParseDataP5FsmAp
libragel.so.0:_ZN12LongestMatch29transferScannerLeavingActionsEP5FsmAp
libragel.so.0:_ZN12LongestMatch4walkEP9ParseData
libragel.so.0:_ZN12LongestMatch7restartEP5FsmApP6CondAp
libragel.so.0:_ZN12LongestMatch7restartEP5FsmApP7TransAp
libragel.so.0:_ZN12LongestMatch7walkNfaEP9ParseData
libragel.so.0:_ZN12LongestMatch8findNameEP9ParseData
libragel.so.0:_ZN13FactorWithAug12makeNameTreeEP9ParseData
libragel.so.0:_ZN13FactorWithAug13assignActionsEP9ParseDataP5FsmApPi
libragel.so.0:_ZN13FactorWithAug15resolveNameRefsEP9ParseData
libragel.so.0:_ZN13FactorWithAug16assignConditionsEP5FsmAp
libragel.so.0:_ZN13FactorWithAug16assignPrioritiesEP5FsmApPi
libragel.so.0:_ZN13FactorWithAug4walkEP9ParseData
libragel.so.0:_ZN13FactorWithAugD1Ev
libragel.so.0:_ZN13FactorWithAugD2Ev
libragel.so.0:_ZN13FactorWithNeg12makeNameTreeEP9ParseData
libragel.so.0:_ZN13FactorWithNeg15resolveNameRefsEP9ParseData
libragel.so.0:_ZN13FactorWithNeg4walkEP9ParseData
libragel.so.0:_ZN13FactorWithNegD1Ev
libragel.so.0:_ZN13FactorWithNegD2Ev
libragel.so.0:_ZN13FactorWithRep12makeNameTreeEP9ParseData
libragel.so.0:_ZN13FactorWithRep15resolveNameRefsEP9ParseData
libragel.so.0:_ZN13FactorWithRep4walkEP9ParseData
libragel.so.0:_ZN13FactorWithRepD1Ev
libragel.so.0:_ZN13FactorWithRepD2Ev
libragel.so.0:_ZN16LongestMatchPart6getLocEv
libragel.so.0:_ZN4Join12makeNameTreeEP9ParseData
libragel.so.0:_ZN4Join15resolveNameRefsEP9ParseData
libragel.so.0:_ZN4Join4walkEP9ParseData
libragel.so.0:_ZN4Join8walkJoinEP9ParseData
libragel.so.0:_ZN4JoinC1EP10Expression
libragel.so.0:_ZN4JoinC1ERK8InputLocP10Expression
libragel.so.0:_ZN4JoinC2EP10Expression
libragel.so.0:_ZN4JoinC2ERK8InputLocP10Expression
libragel.so.0:_ZN4Term12makeNameTreeEP9ParseData
libragel.so.0:_ZN4Term15resolveNameRefsEP9ParseData
libragel.so.0:_ZN4Term4walkEP9ParseDatab
libragel.so.0:_ZN4TermD1Ev
libragel.so.0:_ZN4TermD2Ev
libragel.so.0:_ZN5Range4walkEP9ParseData
libragel.so.0:_ZN5RangeD1Ev
libragel.so.0:_ZN5RangeD2Ev
libragel.so.0:_ZN5Token3setEP9colm_dataP13colm_location
libragel.so.0:_ZN5Token3setEPKciP13colm_location
libragel.so.0:_ZN5Token3setEPKciRK8InputLoc
libragel.so.0:_ZN5Token3setEPKciRK9ParserLoc
libragel.so.0:_ZN5Token4_setEPKci
libragel.so.0:_ZN6Factor12makeNameTreeEP9ParseData
libragel.so.0:_ZN6Factor15resolveNameRefsEP9ParseData
libragel.so.0:_ZN6Factor4walkEP9ParseData
libragel.so.0:_ZN6FactorD1Ev
libragel.so.0:_ZN6FactorD2Ev
libragel.so.0:_ZN6ReItem4walkEP9ParseDataP7RegExpr
libragel.so.0:_ZN6ReItemD1Ev
libragel.so.0:_ZN6ReItemD2Ev
libragel.so.0:_ZN6VarDef12makeNameTreeERK8InputLocP9ParseData
libragel.so.0:_ZN6VarDef15resolveNameRefsEP9ParseData
libragel.so.0:_ZN6VarDef4walkEP9ParseData
libragel.so.0:_ZN6VarDefD1Ev
libragel.so.0:_ZN6VarDefD2Ev
libragel.so.0:_ZN7Literal4walkEP9ParseData
libragel.so.0:_ZN7RegExpr4walkEP9ParseDataPS_
libragel.so.0:_ZN7RegExprD1Ev
libragel.so.0:_ZN7RegExprD2Ev
libragel.so.0:_ZN8InputLocC1EP13colm_location
libragel.so.0:_ZN8InputLocC2EP13colm_location
libragel.so.0:_ZN8NameInst10anyRefsRecEv
libragel.so.0:_ZN8NameInstD1Ev
libragel.so.0:_ZN8NameInstD2Ev
libragel.so.0:_ZN8NfaUnion12makeNameTreeEP9ParseData
libragel.so.0:_ZN8NfaUnion15resolveNameRefsEP9ParseData
libragel.so.0:_ZN8NfaUnion4walkEP9ParseData
libragel.so.0:_ZN8NfaUnionD1Ev
libragel.so.0:_ZN8NfaUnionD2Ev
libragel.so.0:_ZN8ReOrItem4walkEP9ParseDataP7RegExpr
libragel.so.0:_ZN8RedToken3setEP9colm_dataP13colm_location
libragel.so.0:_ZN8TopLevel10reduceFileEPKcS1_
libragel.so.0:_ZN8TopLevel11tryLongScanERK8InputLocPKc
libragel.so.0:_ZN8TopLevel13tryMachineDefERK8InputLocNSt7__cxx1112basic_stringIcSt11char_traitsIcESaIcEEEP10MachineDefb
libragel.so.0:_ZN8TopLevel15loadMachineNameENSt7__cxx1112basic_stringIcSt11char_traitsIcESaIcEEE
libragel.so.0:_ZN8TopLevel6importERK8InputLocNSt7__cxx1112basic_stringIcSt11char_traitsIcESaIcEEEP7Literal
libragel.so.0:_ZN8TopLevel7includeERK8InputLocbNSt7__cxx1112basic_stringIcSt11char_traitsIcESaIcEEES8_
libragel.so.0:_ZN9InputData10openOutputEv
libragel.so.0:_ZN9InputData10processDotEv
libragel.so.0:_ZN9InputData11closeOutputEv
libragel.so.0:_ZN9InputData11parseReduceEv
libragel.so.0:_ZN9InputData11runFrontendEiPPKc
libragel.so.0:_ZN9InputData11writeOutputEP9InputItem
libragel.so.0:_ZN9InputData12checkLastRefEP9InputItem
libragel.so.0:_ZN9InputData12showBackendsEv
libragel.so.0:_ZN9InputData13loadHistogramEv
libragel.so.0:_ZN9InputData13processReduceEv
libragel.so.0:_ZN9InputData13showFrontendsEv
libragel.so.0:_ZN9InputData14flushRemainingEv
libragel.so.0:_ZN9InputData14isBreadthLabelERKNSt7__cxx1112basic_stringIcSt11char_traitsIcESaIcEEE
libragel.so.0:_ZN9InputData14tryOpenIncludeEPPKcRl
libragel.so.0:_ZN9InputData15generateReducedEv
libragel.so.0:_ZN9InputData16defaultHistogramEv
libragel.so.0:_ZN9InputData18createOutputStreamEv
libragel.so.0:_ZN9InputData18makeFirstInputItemEv
libragel.so.0:_ZN9InputData18prepareAllMachinesEv
libragel.so.0:_ZN9InputData18verifyWriteHasDataEP9InputItem
libragel.so.0:_ZN9InputData19makeDefaultFileNameEv
libragel.so.0:_ZN9InputData19terminateAllParsersEv
libragel.so.0:_ZN9InputData20prepareSingleMachineEv
libragel.so.0:_ZN9InputData20verifyWritesHaveDataEv
libragel.so.0:_ZN9InputData21makeIncludePathChecksEPKcS1_
libragel.so.0:_ZN9InputData27makeTranslateOutputFileNameEv
libragel.so.0:_ZN9InputData4mainEiPPKc
libragel.so.0:_ZN9InputData5usageEv
libragel.so.0:_ZN9InputData6runJobEPKcMS_FiiPS1_EiS2_
libragel.so.0:_ZN9InputData7processEv
libragel.so.0:_ZN9InputData7runRlhcEiPPKc
libragel.so.0:_ZN9InputData7versionEv
libragel.so.0:_ZN9InputData8rlhcMainEiPPKc
libragel.so.0:_ZN9InputData8writeDotERSo
libragel.so.0:_ZN9InputData9checkArgsEv
libragel.so.0:_ZN9InputData9parseArgsEiPPKc
libragel.so.0:_ZN9InputData9readInputEPKc
libragel.so.0:_ZN9InputDataD1Ev
libragel.so.0:_ZN9InputDataD2Ev
libragel.so.0:_ZN9ParseData10initKeyOpsEPK8HostLang
libragel.so.0:_ZN9ParseData11addNameInstERK8InputLocNSt7__cxx1112basic_stringIcSt11char_traitsIcESaIcEEEb
libragel.so.0:_ZN9ParseData11makeExportsEv
libragel.so.0:_ZN9ParseData11resolveFromER6BstSetIP8NameInst6CmpOrdIS2_E10ResizeExpnES2_P7NameRefi
libragel.so.0:_ZN9ParseData11resolvePartEP8NameInstRKNSt7__cxx1112basic_stringIcSt11char_traitsIcESaIcEEEb
libragel.so.0:_ZN9ParseData11setAlphTypeERK8InputLocPK8HostLangPKc
libragel.so.0:_ZN9ParseData11setAlphTypeERK8InputLocPK8HostLangPKcS7_
libragel.so.0:_ZN9ParseData11setVariableEPKcP10InlineList
libragel.so.0:_ZN9ParseData12checkBreadthEP5FsmAp
libragel.so.0:_ZN9ParseData12initNameWalkEv
libragel.so.0:_ZN9ParseData12makeInstanceEP11GraphDictEl
libragel.so.0:_ZN9ParseData12makeNameTreeEP11GraphDictEl
libragel.so.0:_ZN9ParseData12makeSpecificEP11GraphDictEl
libragel.so.0:_ZN9ParseData12popNameScopeERK9NameFrame
libragel.so.0:_ZN9ParseData13createBuiltinEPKc14BuiltinMachine
libragel.so.0:_ZN9ParseData13fillNameIndexEP8NameInst
libragel.so.0:_ZN9ParseData13initGraphDictEv
libragel.so.0:_ZN9ParseData13makeRootNamesEv
libragel.so.0:_ZN9ParseData13printNameInstERSoP8NameInsti
libragel.so.0:_ZN9ParseData13printNameTreeERSo
libragel.so.0:_ZN9ParseData14analysisResultEllPKc
libragel.so.0:_ZN9ParseData14enterNameScopeEbi
libragel.so.0:_ZN9ParseData14resetNameScopeERK9NameFrame
libragel.so.0:_ZN9ParseData15generateReducedEPKc9CodeStyleRSoPK8HostLang
libragel.so.0:_ZN9ParseData15resolveNameRefsEP10InlineListP6Action
libragel.so.0:_ZN9ParseData15resolveStateRefEP7NameRefR8InputLocP6Action
libragel.so.0:_ZN9ParseData16duplicateIncludeEPKcS1_
libragel.so.0:_ZN9ParseData16errorStateLabelsERK6BstSetIP8NameInst6CmpOrdIS2_E10ResizeExpnE
libragel.so.0:_ZN9ParseData17newLmCommonActionEPKcP10InlineList
libragel.so.0:_ZN9ParseData17prepareMachineGenEP11GraphDictElPK8HostLang
libragel.so.0:_ZN9ParseData19initExportsNameWalkEv
libragel.so.0:_ZN9ParseData19makeExportsNameTreeEv
libragel.so.0:_ZN9ParseData20initLongestMatchDataEv
libragel.so.0:_ZN9ParseData20reportAnalysisResultER6FsmRes
libragel.so.0:_ZN9ParseData20reportBreadthResultsEP13BreadthResult
libragel.so.0:_ZN9ParseData20unsetObsoleteEntriesEP5FsmAp
libragel.so.0:_ZN9ParseData21resolveActionNameRefsEv
libragel.so.0:_ZN9ParseData22longestMatchInitTweaksEP5FsmAp
libragel.so.0:_ZN9ParseData5clearEv
libragel.so.0:_ZN9ParseData7makeAllEv
libragel.so.0:_ZN9ParseDataC1EP9InputDataNSt7__cxx1112basic_stringIcSt11char_traitsIcESaIcEEEiRK8InputLocPK8HostLang13MinimizeLevel11MinimizeOpt
libragel.so.0:_ZN9ParseDataC2EP9InputDataNSt7__cxx1112basic_stringIcSt11char_traitsIcESaIcEEEiRK8InputLocPK8HostLang13MinimizeLevel11MinimizeOpt
libragel.so.0:_ZN9ParseDataD1Ev
libragel.so.0:_ZN9ParseDataD2Ev
libragel.so.0:_ZN9ReOrBlock4walkEP9ParseDataP7RegExpr
libragel.so.0:_ZN9ReOrBlockD1Ev
libragel.so.0:_ZN9ReOrBlockD2Ev
libragel.so.0:_ZlsRSoRK7NameRef
libragel.so.0:_ZlsRSoRK8NameInst
